; Function Attrs: mustprogress nounwind uwtable
define noundef nonnull align 8 dereferenceable(8) ptr @_ZN4LIEF5dwarf5types9ClassLike6MemberaSEOS3_(ptr noundef nonnull returned align 8 dereferenceable(8) %0, ptr noundef nonnull align 8 captures(none) dereferenceable(8) %1) local_unnamed_addr #3 align 2 {
  %3 = load ptr, ptr %1, align 8, !tbaa !112
  store ptr null, ptr %1, align 8, !tbaa !112
  %4 = load ptr, ptr %0, align 8, !tbaa !112
  store ptr %3, ptr %0, align 8, !tbaa !112
  %.not.i.i.i.i = icmp eq ptr %4, null
  br i1 %.not.i.i.i.i, label %_ZNSt10unique_ptrIN4LIEF5dwarf5types7details6MemberESt14default_deleteIS4_EEaSEOS7_.exit, label %_ZNKSt14default_deleteIN4LIEF5dwarf5types7details6MemberEEclEPS4_.exit.i.i.i.i

_ZNKSt14default_deleteIN4LIEF5dwarf5types7details6MemberEEclEPS4_.exit.i.i.i.i: ; preds = %2
  tail call void @_ZdlPvm(ptr noundef nonnull %4, i64 noundef 1) #24
  br label %_ZNSt10unique_ptrIN4LIEF5dwarf5types7details6MemberESt14default_deleteIS4_EEaSEOS7_.exit

_ZNSt10unique_ptrIN4LIEF5dwarf5types7details6MemberESt14default_deleteIS4_EEaSEOS7_.exit: ; preds = %2, %_ZNKSt14default_deleteIN4LIEF5dwarf5types7details6MemberEEclEPS4_.exit.i.i.i.i
  ret ptr %0
}